; ModuleID = 'source-C-CXX/28/1414.c'
source_filename = "source-C-CXX/28/1414.c"
target datalayout = "e-m:e-p270:32:32-p271:32:32-p272:64:64-i64:64-f80:128-n8:16:32:64-S128"
target triple = "x86_64-pc-linux-gnu"

@.str = private unnamed_addr constant [3 x i8] c"%d\00", align 1
@.str.1 = private unnamed_addr constant [7 x i8] c"%.3lf\0A\00", align 1

; Function Attrs: nofree nosync nounwind readnone sspstrong uwtable
define dso_local double @fs(i32 %0) local_unnamed_addr #0 {
  switch i32 %0, label %5 [
    i32 1, label %3
    i32 2, label %2
  ]

2:                                                ; preds = %1
  br label %3

3:                                                ; preds = %2, %1, %5
  %4 = phi double [ %12, %5 ], [ 2.000000e+00, %2 ], [ 1.000000e+00, %1 ]
  ret double %4

5:                                                ; preds = %1
  %6 = add nsw i32 %0, -1
  %7 = tail call double @fs(i32 %6)
  %8 = add nsw i32 %0, -2
  %9 = tail call double @fs(i32 %8)
  %10 = fadd double %7, %9
  %11 = fptosi double %10 to i32
  %12 = sitofp i32 %11 to double
  br label %3
}

; Function Attrs: argmemonly mustprogress nofree nosync nounwind willreturn
declare void @llvm.lifetime.start.p0i8(i64 immarg, i8* nocapture) #1

; Function Attrs: argmemonly mustprogress nofree nosync nounwind willreturn
declare void @llvm.lifetime.end.p0i8(i64 immarg, i8* nocapture) #1

; Function Attrs: nofree nounwind sspstrong uwtable
define dso_local i32 @main() local_unnamed_addr #2 {
  %1 = alloca i32, align 4
  %2 = alloca i32, align 4
  %3 = bitcast i32* %1 to i8*
  call void @llvm.lifetime.start.p0i8(i64 4, i8* nonnull %3) #5
  %4 = call i32 (i8*, ...) @__isoc99_scanf(i8* getelementptr inbounds ([3 x i8], [3 x i8]* @.str, i64 0, i64 0), i32* nonnull %1)
  %5 = bitcast i32* %2 to i8*
  %6 = load i32, i32* %1, align 4, !tbaa !5
  %7 = icmp sgt i32 %6, 0
  br i1 %7, label %9, label %8

8:                                                ; preds = %25, %0
  call void @llvm.lifetime.end.p0i8(i64 4, i8* nonnull %3) #5
  ret i32 0

9:                                                ; preds = %0, %25
  %10 = phi i32 [ %28, %25 ], [ 0, %0 ]
  call void @llvm.lifetime.start.p0i8(i64 4, i8* nonnull %5) #5
  %11 = call i32 (i8*, ...) @__isoc99_scanf(i8* getelementptr inbounds ([3 x i8], [3 x i8]* @.str, i64 0, i64 0), i32* nonnull %2)
  %12 = call i8* @llvm.stacksave()
  %13 = load i32, i32* %2, align 4, !tbaa !5
  %14 = icmp sgt i32 %13, 0
  br i1 %14, label %15, label %25

15:                                               ; preds = %9, %15
  %16 = phi i32 [ %20, %15 ], [ 0, %9 ]
  %17 = phi double [ %23, %15 ], [ 0.000000e+00, %9 ]
  %18 = add nuw nsw i32 %16, 2
  %19 = call double @fs(i32 %18)
  %20 = add nuw nsw i32 %16, 1
  %21 = call double @fs(i32 %20)
  %22 = fdiv double %19, %21
  %23 = fadd double %17, %22
  %24 = icmp eq i32 %20, %13
  br i1 %24, label %25, label %15, !llvm.loop !9

25:                                               ; preds = %15, %9
  %26 = phi double [ 0.000000e+00, %9 ], [ %23, %15 ]
  %27 = call i32 (i8*, ...) @printf(i8* nonnull dereferenceable(1) getelementptr inbounds ([7 x i8], [7 x i8]* @.str.1, i64 0, i64 0), double %26)
  call void @llvm.stackrestore(i8* %12)
  call void @llvm.lifetime.end.p0i8(i64 4, i8* nonnull %5) #5
  %28 = add nuw nsw i32 %10, 1
  %29 = load i32, i32* %1, align 4, !tbaa !5
  %30 = icmp slt i32 %28, %29
  br i1 %30, label %9, label %8, !llvm.loop !11
}

; Function Attrs: nofree nounwind
declare noundef i32 @__isoc99_scanf(i8* nocapture noundef readonly, ...) local_unnamed_addr #3

; Function Attrs: mustprogress nofree nosync nounwind willreturn
declare i8* @llvm.stacksave() #4

; Function Attrs: nofree nounwind
declare noundef i32 @printf(i8* nocapture noundef readonly, ...) local_unnamed_addr #3

; Function Attrs: mustprogress nofree nosync nounwind willreturn
declare void @llvm.stackrestore(i8*) #4


!llvm.module.flags = !{!0, !1, !2, !3}
!llvm.ident = !{!4}

!0 = !{i32 1, !"wchar_size", i32 4}
!1 = !{i32 7, !"PIC Level", i32 2}
!2 = !{i32 7, !"PIE Level", i32 2}
!3 = !{i32 7, !"uwtable", i32 1}
!4 = !{!"clang version 13.0.0"}
!5 = !{!6, !6, i64 0}
!6 = !{!"int", !7, i64 0}
!7 = !{!"omnipotent char", !8, i64 0}
!8 = !{!"Simple C/C++ TBAA"}
!9 = distinct !{!9, !10}
!10 = !{!"llvm.loop.mustprogress"}
!11 = distinct !{!11, !10}
